; ModuleID = '39/2161.c'
source_filename = "39/2161.c"
target datalayout = "e-m:e-p270:32:32-p271:32:32-p272:64:64-i64:64-f80:128-n8:16:32:64-S128"
target triple = "x86_64-pc-linux-gnu"

%struct.stu = type { [21 x i8], i32, i32, i8, i8, i32 }

@.str = private unnamed_addr constant [3 x i8] c"%d\00", align 1
@.str.1 = private unnamed_addr constant [18 x i8] c"%s %d %d %c %c %d\00", align 1
@stu = common dso_local global [100 x %struct.stu] zeroinitializer, align 16
@.str.2 = private unnamed_addr constant [10 x i8] c"%s\0A%d\0A%d\0A\00", align 1

; Function Attrs: noinline nounwind uwtable
define dso_local i32 @main() #0 {
  %1 = alloca i32, align 4
  %2 = alloca i32, align 4
  %3 = alloca i32, align 4
  %4 = alloca i32, align 4
  %5 = alloca i32, align 4
  %6 = alloca i32, align 4
  %7 = alloca [100 x i32], align 16
  store i32 0, i32* %1, align 4
  %8 = call i32 (i8*, ...) @__isoc99_scanf(i8* getelementptr inbounds ([3 x i8], [3 x i8]* @.str, i64 0, i64 0), i32* %2)
  store i32 0, i32* %3, align 4
  br label %9

9:                                                ; preds = %137, %0
  %10 = load i32, i32* %3, align 4
  %11 = load i32, i32* %2, align 4
  %12 = icmp slt i32 %10, %11
  br i1 %12, label %13, label %140

13:                                               ; preds = %9
  %14 = load i32, i32* %3, align 4
  %15 = sext i32 %14 to i64
  %16 = getelementptr inbounds [100 x %struct.stu], [100 x %struct.stu]* @stu, i64 0, i64 %15
  %17 = getelementptr inbounds %struct.stu, %struct.stu* %16, i32 0, i32 0
  %18 = load i32, i32* %3, align 4
  %19 = sext i32 %18 to i64
  %20 = getelementptr inbounds [100 x %struct.stu], [100 x %struct.stu]* @stu, i64 0, i64 %19
  %21 = getelementptr inbounds %struct.stu, %struct.stu* %20, i32 0, i32 1
  %22 = load i32, i32* %3, align 4
  %23 = sext i32 %22 to i64
  %24 = getelementptr inbounds [100 x %struct.stu], [100 x %struct.stu]* @stu, i64 0, i64 %23
  %25 = getelementptr inbounds %struct.stu, %struct.stu* %24, i32 0, i32 2
  %26 = load i32, i32* %3, align 4
  %27 = sext i32 %26 to i64
  %28 = getelementptr inbounds [100 x %struct.stu], [100 x %struct.stu]* @stu, i64 0, i64 %27
  %29 = getelementptr inbounds %struct.stu, %struct.stu* %28, i32 0, i32 3
  %30 = load i32, i32* %3, align 4
  %31 = sext i32 %30 to i64
  %32 = getelementptr inbounds [100 x %struct.stu], [100 x %struct.stu]* @stu, i64 0, i64 %31
  %33 = getelementptr inbounds %struct.stu, %struct.stu* %32, i32 0, i32 4
  %34 = load i32, i32* %3, align 4
  %35 = sext i32 %34 to i64
  %36 = getelementptr inbounds [100 x %struct.stu], [100 x %struct.stu]* @stu, i64 0, i64 %35
  %37 = getelementptr inbounds %struct.stu, %struct.stu* %36, i32 0, i32 5
  %38 = call i32 (i8*, ...) @__isoc99_scanf(i8* getelementptr inbounds ([18 x i8], [18 x i8]* @.str.1, i64 0, i64 0), [21 x i8]* %17, i32* %21, i32* %25, i8* %29, i8* %33, i32* %37)
  %39 = load i32, i32* %3, align 4
  %40 = sext i32 %39 to i64
  %41 = getelementptr inbounds [100 x i32], [100 x i32]* %7, i64 0, i64 %40
  store i32 0, i32* %41, align 4
  %42 = load i32, i32* %3, align 4
  %43 = sext i32 %42 to i64
  %44 = getelementptr inbounds [100 x %struct.stu], [100 x %struct.stu]* @stu, i64 0, i64 %43
  %45 = getelementptr inbounds %struct.stu, %struct.stu* %44, i32 0, i32 1
  %46 = load i32, i32* %45, align 8
  %47 = icmp sgt i32 %46, 80
  br i1 %47, label %48, label %61

48:                                               ; preds = %13
  %49 = load i32, i32* %3, align 4
  %50 = sext i32 %49 to i64
  %51 = getelementptr inbounds [100 x %struct.stu], [100 x %struct.stu]* @stu, i64 0, i64 %50
  %52 = getelementptr inbounds %struct.stu, %struct.stu* %51, i32 0, i32 5
  %53 = load i32, i32* %52, align 4
  %54 = icmp sgt i32 %53, 0
  br i1 %54, label %55, label %61

55:                                               ; preds = %48
  %56 = load i32, i32* %3, align 4
  %57 = sext i32 %56 to i64
  %58 = getelementptr inbounds [100 x i32], [100 x i32]* %7, i64 0, i64 %57
  %59 = load i32, i32* %58, align 4
  %60 = add nsw i32 %59, 8000
  store i32 %60, i32* %58, align 4
  br label %61

61:                                               ; preds = %55, %48, %13
  %62 = load i32, i32* %3, align 4
  %63 = sext i32 %62 to i64
  %64 = getelementptr inbounds [100 x %struct.stu], [100 x %struct.stu]* @stu, i64 0, i64 %63
  %65 = getelementptr inbounds %struct.stu, %struct.stu* %64, i32 0, i32 1
  %66 = load i32, i32* %65, align 8
  %67 = icmp sgt i32 %66, 85
  br i1 %67, label %68, label %81

68:                                               ; preds = %61
  %69 = load i32, i32* %3, align 4
  %70 = sext i32 %69 to i64
  %71 = getelementptr inbounds [100 x %struct.stu], [100 x %struct.stu]* @stu, i64 0, i64 %70
  %72 = getelementptr inbounds %struct.stu, %struct.stu* %71, i32 0, i32 2
  %73 = load i32, i32* %72, align 4
  %74 = icmp sgt i32 %73, 80
  br i1 %74, label %75, label %81

75:                                               ; preds = %68
  %76 = load i32, i32* %3, align 4
  %77 = sext i32 %76 to i64
  %78 = getelementptr inbounds [100 x i32], [100 x i32]* %7, i64 0, i64 %77
  %79 = load i32, i32* %78, align 4
  %80 = add nsw i32 %79, 4000
  store i32 %80, i32* %78, align 4
  br label %81

81:                                               ; preds = %75, %68, %61
  %82 = load i32, i32* %3, align 4
  %83 = sext i32 %82 to i64
  %84 = getelementptr inbounds [100 x %struct.stu], [100 x %struct.stu]* @stu, i64 0, i64 %83
  %85 = getelementptr inbounds %struct.stu, %struct.stu* %84, i32 0, i32 1
  %86 = load i32, i32* %85, align 8
  %87 = icmp sgt i32 %86, 90
  br i1 %87, label %88, label %94

88:                                               ; preds = %81
  %89 = load i32, i32* %3, align 4
  %90 = sext i32 %89 to i64
  %91 = getelementptr inbounds [100 x i32], [100 x i32]* %7, i64 0, i64 %90
  %92 = load i32, i32* %91, align 4
  %93 = add nsw i32 %92, 2000
  store i32 %93, i32* %91, align 4
  br label %94

94:                                               ; preds = %88, %81
  %95 = load i32, i32* %3, align 4
  %96 = sext i32 %95 to i64
  %97 = getelementptr inbounds [100 x %struct.stu], [100 x %struct.stu]* @stu, i64 0, i64 %96
  %98 = getelementptr inbounds %struct.stu, %struct.stu* %97, i32 0, i32 1
  %99 = load i32, i32* %98, align 8
  %100 = icmp sgt i32 %99, 85
  br i1 %100, label %101, label %115

101:                                              ; preds = %94
  %102 = load i32, i32* %3, align 4
  %103 = sext i32 %102 to i64
  %104 = getelementptr inbounds [100 x %struct.stu], [100 x %struct.stu]* @stu, i64 0, i64 %103
  %105 = getelementptr inbounds %struct.stu, %struct.stu* %104, i32 0, i32 4
  %106 = load i8, i8* %105, align 1
  %107 = sext i8 %106 to i32
  %108 = icmp eq i32 %107, 89
  br i1 %108, label %109, label %115

109:                                              ; preds = %101
  %110 = load i32, i32* %3, align 4
  %111 = sext i32 %110 to i64
  %112 = getelementptr inbounds [100 x i32], [100 x i32]* %7, i64 0, i64 %111
  %113 = load i32, i32* %112, align 4
  %114 = add nsw i32 %113, 1000
  store i32 %114, i32* %112, align 4
  br label %115

115:                                              ; preds = %109, %101, %94
  %116 = load i32, i32* %3, align 4
  %117 = sext i32 %116 to i64
  %118 = getelementptr inbounds [100 x %struct.stu], [100 x %struct.stu]* @stu, i64 0, i64 %117
  %119 = getelementptr inbounds %struct.stu, %struct.stu* %118, i32 0, i32 2
  %120 = load i32, i32* %119, align 4
  %121 = icmp sgt i32 %120, 80
  br i1 %121, label %122, label %136

122:                                              ; preds = %115
  %123 = load i32, i32* %3, align 4
  %124 = sext i32 %123 to i64
  %125 = getelementptr inbounds [100 x %struct.stu], [100 x %struct.stu]* @stu, i64 0, i64 %124
  %126 = getelementptr inbounds %struct.stu, %struct.stu* %125, i32 0, i32 3
  %127 = load i8, i8* %126, align 8
  %128 = sext i8 %127 to i32
  %129 = icmp eq i32 %128, 89
  br i1 %129, label %130, label %136

130:                                              ; preds = %122
  %131 = load i32, i32* %3, align 4
  %132 = sext i32 %131 to i64
  %133 = getelementptr inbounds [100 x i32], [100 x i32]* %7, i64 0, i64 %132
  %134 = load i32, i32* %133, align 4
  %135 = add nsw i32 %134, 850
  store i32 %135, i32* %133, align 4
  br label %136

136:                                              ; preds = %130, %122, %115
  br label %137

137:                                              ; preds = %136
  %138 = load i32, i32* %3, align 4
  %139 = add nsw i32 %138, 1
  store i32 %139, i32* %3, align 4
  br label %9

140:                                              ; preds = %9
  %141 = getelementptr inbounds [100 x i32], [100 x i32]* %7, i64 0, i64 0
  %142 = load i32, i32* %141, align 16
  store i32 %142, i32* %4, align 4
  store i32 0, i32* %5, align 4
  %143 = getelementptr inbounds [100 x i32], [100 x i32]* %7, i64 0, i64 0
  %144 = load i32, i32* %143, align 16
  store i32 %144, i32* %6, align 4
  store i32 1, i32* %3, align 4
  br label %145

145:                                              ; preds = %169, %140
  %146 = load i32, i32* %3, align 4
  %147 = load i32, i32* %2, align 4
  %148 = icmp slt i32 %146, %147
  br i1 %148, label %149, label %172

149:                                              ; preds = %145
  %150 = load i32, i32* %3, align 4
  %151 = sext i32 %150 to i64
  %152 = getelementptr inbounds [100 x i32], [100 x i32]* %7, i64 0, i64 %151
  %153 = load i32, i32* %152, align 4
  %154 = load i32, i32* %4, align 4
  %155 = icmp sgt i32 %153, %154
  br i1 %155, label %156, label %162

156:                                              ; preds = %149
  %157 = load i32, i32* %3, align 4
  %158 = sext i32 %157 to i64
  %159 = getelementptr inbounds [100 x i32], [100 x i32]* %7, i64 0, i64 %158
  %160 = load i32, i32* %159, align 4
  store i32 %160, i32* %4, align 4
  %161 = load i32, i32* %3, align 4
  store i32 %161, i32* %5, align 4
  br label %162

162:                                              ; preds = %156, %149
  %163 = load i32, i32* %3, align 4
  %164 = sext i32 %163 to i64
  %165 = getelementptr inbounds [100 x i32], [100 x i32]* %7, i64 0, i64 %164
  %166 = load i32, i32* %165, align 4
  %167 = load i32, i32* %6, align 4
  %168 = add nsw i32 %167, %166
  store i32 %168, i32* %6, align 4
  br label %169

169:                                              ; preds = %162
  %170 = load i32, i32* %3, align 4
  %171 = add nsw i32 %170, 1
  store i32 %171, i32* %3, align 4
  br label %145

172:                                              ; preds = %145
  %173 = load i32, i32* %5, align 4
  %174 = sext i32 %173 to i64
  %175 = getelementptr inbounds [100 x %struct.stu], [100 x %struct.stu]* @stu, i64 0, i64 %174
  %176 = getelementptr inbounds %struct.stu, %struct.stu* %175, i32 0, i32 0
  %177 = getelementptr inbounds [21 x i8], [21 x i8]* %176, i64 0, i64 0
  %178 = load i32, i32* %4, align 4
  %179 = load i32, i32* %6, align 4
  %180 = call i32 (i8*, ...) @printf(i8* getelementptr inbounds ([10 x i8], [10 x i8]* @.str.2, i64 0, i64 0), i8* %177, i32 %178, i32 %179)
  %181 = load i32, i32* %1, align 4
  ret i32 %181
}

declare dso_local i32 @__isoc99_scanf(i8*, ...) #1

declare dso_local i32 @printf(i8*, ...) #1


!llvm.module.flags = !{!0}
!llvm.ident = !{!1}

!0 = !{i32 1, !"wchar_size", i32 4}
!1 = !{!"clang version 10.0.0-4ubuntu1 "}
